; Function Attrs: nounwind uwtable
define internal fastcc void @Prs_ManInitializeNtk(ptr noundef nonnull captures(none) initializes((56, 64)) %0, i32 noundef range(i32 1, 0) %1) unnamed_addr #0 {
  %3 = tail call noalias dereferenceable_or_null(240) ptr @calloc(i64 noundef 1, i64 noundef 240) #32
  %4 = getelementptr inbounds nuw i8, ptr %0, i64 56
  store ptr %3, ptr %4, align 8
  store i32 %1, ptr %3, align 8
  %5 = getelementptr inbounds nuw i8, ptr %3, i64 4
  store i8 2, ptr %5, align 4
  %6 = getelementptr inbounds nuw i8, ptr %0, i64 32
  %7 = load ptr, ptr %6, align 8
  %8 = tail call ptr @Abc_NamRef(ptr noundef %7) #28
  %9 = load ptr, ptr %4, align 8
  %10 = getelementptr inbounds nuw i8, ptr %9, i64 8
  store ptr %8, ptr %10, align 8
  %11 = getelementptr inbounds nuw i8, ptr %0, i64 40
  %12 = load ptr, ptr %11, align 8
  %13 = tail call ptr @Abc_NamRef(ptr noundef %12) #28
  %14 = load ptr, ptr %4, align 8
  %15 = getelementptr inbounds nuw i8, ptr %14, i64 16
  store ptr %13, ptr %15, align 8
  %16 = getelementptr inbounds nuw i8, ptr %0, i64 48
  %17 = load ptr, ptr %16, align 8
  %18 = getelementptr inbounds nuw i8, ptr %17, i64 16
  %19 = load i32, ptr %18, align 8
  %20 = add nsw i32 %19, 1
  store i32 %20, ptr %18, align 8
  %21 = load ptr, ptr %4, align 8
  %22 = getelementptr inbounds nuw i8, ptr %21, i64 24
  store ptr %17, ptr %22, align 8
  %23 = getelementptr inbounds nuw i8, ptr %0, i64 64
  %24 = load ptr, ptr %23, align 8
  %25 = load ptr, ptr %4, align 8
  %26 = getelementptr inbounds nuw i8, ptr %24, i64 4
  %27 = load i32, ptr %26, align 4
  %28 = load i32, ptr %24, align 8
  %29 = icmp eq i32 %27, %28
  br i1 %29, label %30, label %.Vec_PtrGrow.exit11_crit_edge.i

.Vec_PtrGrow.exit11_crit_edge.i:                  ; preds = %2
  %.phi.trans.insert.i = getelementptr inbounds nuw i8, ptr %24, i64 8
  %.pre.i = load ptr, ptr %.phi.trans.insert.i, align 8
  br label %Vec_PtrPush.exit

30:                                               ; preds = %2
  %31 = icmp slt i32 %27, 16
  br i1 %31, label %32, label %40

32:                                               ; preds = %30
  %33 = getelementptr inbounds nuw i8, ptr %24, i64 8
  %34 = load ptr, ptr %33, align 8
  %.not9.i.i = icmp eq ptr %34, null
  br i1 %.not9.i.i, label %37, label %35

35:                                               ; preds = %32
  %36 = tail call dereferenceable_or_null(128) ptr @realloc(ptr noundef nonnull %34, i64 noundef 128) #29
  br label %Vec_PtrGrow.exit.i

37:                                               ; preds = %32
  %38 = tail call noalias dereferenceable_or_null(128) ptr @malloc(i64 noundef 128) #30
  br label %Vec_PtrGrow.exit.i

Vec_PtrGrow.exit.i:                               ; preds = %37, %35
  %39 = phi ptr [ %36, %35 ], [ %38, %37 ]
  store ptr %39, ptr %33, align 8
  store i32 16, ptr %24, align 8
  br label %Vec_PtrPush.exit

40:                                               ; preds = %30
  %41 = shl nuw nsw i32 %27, 1
  %42 = getelementptr inbounds nuw i8, ptr %24, i64 8
  %43 = load ptr, ptr %42, align 8
  %.not9.i10.i = icmp eq ptr %43, null
  %44 = zext nneg i32 %41 to i64
  %45 = shl nuw nsw i64 %44, 3
  br i1 %.not9.i10.i, label %48, label %46

46:                                               ; preds = %40
  %47 = tail call ptr @realloc(ptr noundef nonnull %43, i64 noundef %45) #29
  br label %50

48:                                               ; preds = %40
  %49 = tail call noalias ptr @malloc(i64 noundef %45) #30
  br label %50

50:                                               ; preds = %48, %46
  %51 = phi ptr [ %47, %46 ], [ %49, %48 ]
  store ptr %51, ptr %42, align 8
  store i32 %41, ptr %24, align 8
  br label %Vec_PtrPush.exit

Vec_PtrPush.exit:                                 ; preds = %.Vec_PtrGrow.exit11_crit_edge.i, %Vec_PtrGrow.exit.i, %50
  %52 = phi ptr [ %.pre.i, %.Vec_PtrGrow.exit11_crit_edge.i ], [ %51, %50 ], [ %39, %Vec_PtrGrow.exit.i ]
  %53 = load i32, ptr %26, align 4
  %54 = add nsw i32 %53, 1
  store i32 %54, ptr %26, align 4
  %55 = sext i32 %53 to i64
  %56 = getelementptr inbounds ptr, ptr %52, i64 %55
  store ptr %25, ptr %56, align 8
  ret void
}